target datalayout = "e-m:e-p270:32:32-p271:32:32-p272:64:64-i64:64-i128:128-f80:128-n8:16:32:64-S128"
target triple = "x86_64-pc-linux-gnu"

%struct.RTSPMessageHeader = type { i32, i32, i32, i64, i64, [8 x %struct.RTSPTransportField], i32, [512 x i8], [4096 x i8], [64 x i8], [64 x i8], i32, i32, [256 x i8], [64 x i8], [64 x i8] }
%struct.RTSPTransportField = type { i32, i32, i32, i32, i32, i32, i32, i32, i32, i32, %struct.sockaddr_storage, [47 x i8], i32, i32 }
%struct.sockaddr_storage = type { i16, [118 x i8], i64 }
%struct.AVFormatContext = type { ptr, ptr, ptr, ptr, ptr, i32, i32, ptr, i32, ptr, i32, ptr, ptr, i64, i64, i64, i32, i32, i32, i64, i64, ptr, i32, i32, ptr, i32, i32, i32, i32, ptr, i64, i32, i32, %struct.AVIOInterruptCB, i32, i32, i32, i32, i64, i32, i32, i32, i32, i32, i32, i32, i32, i32, i32, i32, i32, i64, i32, i32, i32, i32, i32, ptr, ptr, ptr, ptr, i32, ptr, ptr, ptr, ptr, i32, ptr, ptr, i64, ptr, ptr, ptr, i64 }
%struct.AVIOInterruptCB = type { ptr, ptr }
%struct.RTSPState = type { ptr, ptr, i32, ptr, i32, i64, i32, [512 x i8], i32, i64, i32, i32, i32, [64 x i8], [128 x i8], %struct.HTTPAuthState, [2048 x i8], ptr, i32, ptr, ptr, [1024 x i8], ptr, i64, [4096 x i8], ptr, i32, i32, ptr, i32, i32, ptr, i32, i64, ptr, i32, i32, i32, i32, i32, i32, i32, i32, i32, i32, i64, i32, ptr, [4 x i8], i32, i32, ptr }
%struct.HTTPAuthState = type { i32, [200 x i8], %struct.DigestParams, i32 }
%struct.DigestParams = type { [300 x i8], [10 x i8], [30 x i8], [300 x i8], [10 x i8], i32 }
%struct.RTSPStream = type { ptr, ptr, i32, i32, i32, [4096 x i8], i32, %struct.sockaddr_storage, i32, ptr, i32, ptr, i32, i32, ptr, ptr, i32, i32, [40 x i8], [100 x i8] }

@.str.7 = private unnamed_addr constant [18 x i8] c"tcp_read_packet:\0A\00", align 1
@.str.8 = private unnamed_addr constant [14 x i8] c"id=%d len=%d\0A\00", align 1

; Function Attrs: alwaysinline nounwind willreturn memory(none) uwtable
define internal zeroext i16 @av_bswap16(i16 noundef zeroext %0) #6 {
  %2 = alloca i16, align 2
  store i16 %0, ptr %2, align 2, !tbaa !51
  %3 = load i16, ptr %2, align 2, !tbaa !51
  %4 = zext i16 %3 to i32
  %5 = ashr i32 %4, 8
  %6 = load i16, ptr %2, align 2, !tbaa !51
  %7 = zext i16 %6 to i32
  %8 = shl i32 %7, 8
  %9 = or i32 %5, %8
  %10 = trunc i32 %9 to i16
  store i16 %10, ptr %2, align 2, !tbaa !51
  %11 = load i16, ptr %2, align 2, !tbaa !51
  ret i16 %11
}

; Function Attrs: nounwind uwtable
define i32 @ff_rtsp_tcp_read_packet(ptr noundef %0, ptr noundef %1, ptr noundef %2, i32 noundef %3) #0 {
  %5 = alloca i32, align 4
  %6 = alloca ptr, align 8
  %7 = alloca ptr, align 8
  %8 = alloca ptr, align 8
  %9 = alloca i32, align 4
  %10 = alloca ptr, align 8
  %11 = alloca i32, align 4
  %12 = alloca i32, align 4
  %13 = alloca i32, align 4
  %14 = alloca i32, align 4
  %15 = alloca ptr, align 8
  %16 = alloca %struct.RTSPMessageHeader, align 8
  %17 = alloca i32, align 4
  store ptr %0, ptr %6, align 8, !tbaa !4
  store ptr %1, ptr %7, align 8, !tbaa !60
  store ptr %2, ptr %8, align 8, !tbaa !40
  store i32 %3, ptr %9, align 4, !tbaa !28
  call void @llvm.lifetime.start.p0(i64 8, ptr %10) #10
  %18 = load ptr, ptr %6, align 8, !tbaa !4
  %19 = getelementptr inbounds nuw %struct.AVFormatContext, ptr %18, i32 0, i32 3
  %20 = load ptr, ptr %19, align 8, !tbaa !9
  store ptr %20, ptr %10, align 8, !tbaa !26
  call void @llvm.lifetime.start.p0(i64 4, ptr %11) #10
  call void @llvm.lifetime.start.p0(i64 4, ptr %12) #10
  call void @llvm.lifetime.start.p0(i64 4, ptr %13) #10
  call void @llvm.lifetime.start.p0(i64 4, ptr %14) #10
  call void @llvm.lifetime.start.p0(i64 8, ptr %15) #10
  %21 = load ptr, ptr %6, align 8, !tbaa !4
  call void (ptr, i32, ptr, ...) @av_log(ptr noundef %21, i32 noundef 56, ptr noundef @.str.7)
  br label %22

22:                                               ; preds = %127, %72, %4
  br label %23

23:                                               ; preds = %43, %22
  call void @llvm.lifetime.start.p0(i64 6960, ptr %16) #10
  %24 = load ptr, ptr %6, align 8, !tbaa !4
  %25 = call i32 @ff_rtsp_read_reply(ptr noundef %24, ptr noundef %16, ptr noundef null, i32 noundef 1, ptr noundef null)
  store i32 %25, ptr %14, align 4, !tbaa !28
  %26 = load i32, ptr %14, align 4, !tbaa !28
  %27 = icmp slt i32 %26, 0
  br i1 %27, label %28, label %30

28:                                               ; preds = %23
  %29 = load i32, ptr %14, align 4, !tbaa !28
  store i32 %29, ptr %5, align 4
  store i32 1, ptr %17, align 4
  br label %41

30:                                               ; preds = %23
  %31 = load i32, ptr %14, align 4, !tbaa !28
  %32 = icmp eq i32 %31, 1
  br i1 %32, label %33, label %34

33:                                               ; preds = %30
  store i32 3, ptr %17, align 4
  br label %41

34:                                               ; preds = %30
  %35 = load ptr, ptr %10, align 8, !tbaa !26
  %36 = getelementptr inbounds nuw %struct.RTSPState, ptr %35, i32 0, i32 4
  %37 = load i32, ptr %36, align 8, !tbaa !37
  %38 = icmp ne i32 %37, 1
  br i1 %38, label %39, label %40

39:                                               ; preds = %34
  store i32 0, ptr %5, align 4
  store i32 1, ptr %17, align 4
  br label %41

40:                                               ; preds = %34
  store i32 0, ptr %17, align 4
  br label %41

41:                                               ; preds = %40, %39, %33, %28
  call void @llvm.lifetime.end.p0(i64 6960, ptr %16) #10
  %42 = load i32, ptr %17, align 4
  switch i32 %42, label %132 [
    i32 0, label %43
    i32 3, label %44
  ]

43:                                               ; preds = %41
  br label %23

44:                                               ; preds = %41
  %45 = load ptr, ptr %10, align 8, !tbaa !26
  %46 = getelementptr inbounds nuw %struct.RTSPState, ptr %45, i32 0, i32 1
  %47 = load ptr, ptr %46, align 8, !tbaa !43
  %48 = load ptr, ptr %8, align 8, !tbaa !40
  %49 = call i32 @ffurl_read_complete(ptr noundef %47, ptr noundef %48, i32 noundef 3)
  store i32 %49, ptr %14, align 4, !tbaa !28
  %50 = load i32, ptr %14, align 4, !tbaa !28
  %51 = icmp ne i32 %50, 3
  br i1 %51, label %52, label %53

52:                                               ; preds = %44
  store i32 -5, ptr %5, align 4
  store i32 1, ptr %17, align 4
  br label %132

53:                                               ; preds = %44
  %54 = load ptr, ptr %8, align 8, !tbaa !40
  %55 = getelementptr inbounds i8, ptr %54, i64 0
  %56 = load i8, ptr %55, align 1, !tbaa !44
  %57 = zext i8 %56 to i32
  store i32 %57, ptr %11, align 4, !tbaa !28
  %58 = load ptr, ptr %8, align 8, !tbaa !40
  %59 = getelementptr inbounds i8, ptr %58, i64 1
  %60 = load i16, ptr %59, align 1, !tbaa !44
  %61 = call zeroext i16 @av_bswap16(i16 noundef zeroext %60) #12
  %62 = zext i16 %61 to i32
  store i32 %62, ptr %12, align 4, !tbaa !28
  %63 = load ptr, ptr %6, align 8, !tbaa !4
  %64 = load i32, ptr %11, align 4, !tbaa !28
  %65 = load i32, ptr %12, align 4, !tbaa !28
  call void (ptr, i32, ptr, ...) @av_log(ptr noundef %63, i32 noundef 56, ptr noundef @.str.8, i32 noundef %64, i32 noundef %65)
  %66 = load i32, ptr %12, align 4, !tbaa !28
  %67 = load i32, ptr %9, align 4, !tbaa !28
  %68 = icmp sgt i32 %66, %67
  br i1 %68, label %72, label %69

69:                                               ; preds = %53
  %70 = load i32, ptr %12, align 4, !tbaa !28
  %71 = icmp slt i32 %70, 8
  br i1 %71, label %72, label %73

72:                                               ; preds = %69, %53
  br label %22

73:                                               ; preds = %69
  %74 = load ptr, ptr %10, align 8, !tbaa !26
  %75 = getelementptr inbounds nuw %struct.RTSPState, ptr %74, i32 0, i32 1
  %76 = load ptr, ptr %75, align 8, !tbaa !43
  %77 = load ptr, ptr %8, align 8, !tbaa !40
  %78 = load i32, ptr %12, align 4, !tbaa !28
  %79 = call i32 @ffurl_read_complete(ptr noundef %76, ptr noundef %77, i32 noundef %78)
  store i32 %79, ptr %14, align 4, !tbaa !28
  %80 = load i32, ptr %14, align 4, !tbaa !28
  %81 = load i32, ptr %12, align 4, !tbaa !28
  %82 = icmp ne i32 %80, %81
  br i1 %82, label %83, label %84

83:                                               ; preds = %73
  store i32 -5, ptr %5, align 4
  store i32 1, ptr %17, align 4
  br label %132

84:                                               ; preds = %73
  %85 = load ptr, ptr %10, align 8, !tbaa !26
  %86 = getelementptr inbounds nuw %struct.RTSPState, ptr %85, i32 0, i32 10
  %87 = load i32, ptr %86, align 8, !tbaa !61
  %88 = icmp eq i32 %87, 1
  br i1 %88, label %89, label %96

89:                                               ; preds = %84
  %90 = load ptr, ptr %8, align 8, !tbaa !40
  %91 = load i32, ptr %12, align 4, !tbaa !28
  %92 = call i32 @ff_rdt_parse_header(ptr noundef %90, i32 noundef %91, ptr noundef %11, ptr noundef null, ptr noundef null, ptr noundef null, ptr noundef null)
  store i32 %92, ptr %14, align 4, !tbaa !28
  %93 = icmp slt i32 %92, 0
  br i1 %93, label %94, label %96

94:                                               ; preds = %89
  %95 = load i32, ptr %14, align 4, !tbaa !28
  store i32 %95, ptr %5, align 4
  store i32 1, ptr %17, align 4
  br label %132

96:                                               ; preds = %89, %84
  store i32 0, ptr %13, align 4, !tbaa !28
  br label %97

97:                                               ; preds = %124, %96
  %98 = load i32, ptr %13, align 4, !tbaa !28
  %99 = load ptr, ptr %10, align 8, !tbaa !26
  %100 = getelementptr inbounds nuw %struct.RTSPState, ptr %99, i32 0, i32 2
  %101 = load i32, ptr %100, align 8, !tbaa !62
  %102 = icmp slt i32 %98, %101
  br i1 %102, label %103, label %127

103:                                              ; preds = %97
  %104 = load ptr, ptr %10, align 8, !tbaa !26
  %105 = getelementptr inbounds nuw %struct.RTSPState, ptr %104, i32 0, i32 3
  %106 = load ptr, ptr %105, align 8, !tbaa !63
  %107 = load i32, ptr %13, align 4, !tbaa !28
  %108 = sext i32 %107 to i64
  %109 = getelementptr inbounds ptr, ptr %106, i64 %108
  %110 = load ptr, ptr %109, align 8, !tbaa !64
  store ptr %110, ptr %15, align 8, !tbaa !64
  %111 = load i32, ptr %11, align 4, !tbaa !28
  %112 = load ptr, ptr %15, align 8, !tbaa !64
  %113 = getelementptr inbounds nuw %struct.RTSPStream, ptr %112, i32 0, i32 3
  %114 = load i32, ptr %113, align 4, !tbaa !66
  %115 = icmp sge i32 %111, %114
  br i1 %115, label %116, label %123

116:                                              ; preds = %103
  %117 = load i32, ptr %11, align 4, !tbaa !28
  %118 = load ptr, ptr %15, align 8, !tbaa !64
  %119 = getelementptr inbounds nuw %struct.RTSPStream, ptr %118, i32 0, i32 4
  %120 = load i32, ptr %119, align 8, !tbaa !72
  %121 = icmp sle i32 %117, %120
  br i1 %121, label %122, label %123

122:                                              ; preds = %116
  br label %128

123:                                              ; preds = %116, %103
  br label %124

124:                                              ; preds = %123
  %125 = load i32, ptr %13, align 4, !tbaa !28
  %126 = add nsw i32 %125, 1
  store i32 %126, ptr %13, align 4, !tbaa !28
  br label %97, !llvm.loop !73

127:                                              ; preds = %97
  br label %22

128:                                              ; preds = %122
  %129 = load ptr, ptr %15, align 8, !tbaa !64
  %130 = load ptr, ptr %7, align 8, !tbaa !60
  store ptr %129, ptr %130, align 8, !tbaa !64
  %131 = load i32, ptr %12, align 4, !tbaa !28
  store i32 %131, ptr %5, align 4
  store i32 1, ptr %17, align 4
  br label %132

132:                                              ; preds = %128, %94, %83, %52, %41
  call void @llvm.lifetime.end.p0(i64 8, ptr %15) #10
  call void @llvm.lifetime.end.p0(i64 4, ptr %14) #10
  call void @llvm.lifetime.end.p0(i64 4, ptr %13) #10
  call void @llvm.lifetime.end.p0(i64 4, ptr %12) #10
  call void @llvm.lifetime.end.p0(i64 4, ptr %11) #10
  call void @llvm.lifetime.end.p0(i64 8, ptr %10) #10
  %133 = load i32, ptr %5, align 4
  ret i32 %133
}