; Function Attrs: nounwind uwtable
define i32 @ff_rtsp_tcp_read_packet(ptr noundef %0, ptr noundef writeonly captures(none) %1, ptr noundef %2, i32 noundef %3) local_unnamed_addr #0 {
  %5 = alloca i32, align 4
  %6 = alloca %struct.RTSPMessageHeader, align 8
  %7 = getelementptr inbounds nuw i8, ptr %0, i64 24
  %8 = load ptr, ptr %7, align 8, !tbaa !4
  call void @llvm.lifetime.start.p0(i64 4, ptr nonnull %5) #11
  tail call void (ptr, i32, ptr, ...) @av_log(ptr noundef %0, i32 noundef 56, ptr noundef nonnull @.str.7) #11
  call void @llvm.lifetime.start.p0(i64 6960, ptr nonnull %6) #11
  %9 = call i32 @ff_rtsp_read_reply(ptr noundef %0, ptr noundef nonnull %6, ptr noundef null, i32 noundef 1, ptr noundef null) #11
  %10 = icmp slt i32 %9, 0
  br i1 %10, label %.thread, label %.lr.ph.lr.ph

.lr.ph.lr.ph:                                     ; preds = %4
  %11 = getelementptr inbounds nuw i8, ptr %8, i64 32
  %12 = getelementptr inbounds nuw i8, ptr %8, i64 8
  %13 = getelementptr inbounds nuw i8, ptr %2, i64 1
  %14 = getelementptr inbounds nuw i8, ptr %8, i64 576
  %15 = getelementptr inbounds nuw i8, ptr %8, i64 16
  %16 = getelementptr inbounds nuw i8, ptr %8, i64 24
  br label %.lr.ph

.lr.ph:                                           ; preds = %.lr.ph.backedge, %.lr.ph.lr.ph
  %17 = phi i32 [ %9, %.lr.ph.lr.ph ], [ %.be, %.lr.ph.backedge ]
  %18 = icmp eq i32 %17, 1
  br i1 %18, label %24, label %19

19:                                               ; preds = %.lr.ph
  %20 = load i32, ptr %11, align 8, !tbaa !38
  %.not = icmp eq i32 %20, 1
  br i1 %.not, label %21, label %.thread

.thread:                                          ; preds = %.backedge, %19, %21, %4
  %.2.ph = phi i32 [ %9, %4 ], [ %35, %.backedge ], [ %22, %21 ], [ 0, %19 ]
  call void @llvm.lifetime.end.p0(i64 6960, ptr nonnull %6) #11
  br label %.loopexit55

21:                                               ; preds = %19
  call void @llvm.lifetime.end.p0(i64 6960, ptr nonnull %6) #11
  call void @llvm.lifetime.start.p0(i64 6960, ptr nonnull %6) #11
  %22 = call i32 @ff_rtsp_read_reply(ptr noundef %0, ptr noundef nonnull %6, ptr noundef null, i32 noundef 1, ptr noundef null) #11
  %23 = icmp slt i32 %22, 0
  br i1 %23, label %.thread, label %.lr.ph.backedge

.lr.ph.backedge:                                  ; preds = %21, %.backedge
  %.be = phi i32 [ %22, %21 ], [ %35, %.backedge ]
  br label %.lr.ph

24:                                               ; preds = %.lr.ph
  call void @llvm.lifetime.end.p0(i64 6960, ptr nonnull %6) #11
  %25 = load ptr, ptr %12, align 8, !tbaa !24
  %26 = call i32 @ffurl_read_complete(ptr noundef %25, ptr noundef %2, i32 noundef 3) #11
  %.not45 = icmp eq i32 %26, 3
  br i1 %.not45, label %27, label %.loopexit55

27:                                               ; preds = %24
  %28 = load i8, ptr %2, align 1, !tbaa !33
  %29 = zext i8 %28 to i32
  store i32 %29, ptr %5, align 4, !tbaa !37
  %30 = load i16, ptr %13, align 1, !tbaa !33
  %31 = call i16 @llvm.bswap.i16(i16 %30)
  %32 = zext i16 %31 to i32
  call void (ptr, i32, ptr, ...) @av_log(ptr noundef %0, i32 noundef 56, ptr noundef nonnull @.str.8, i32 noundef %29, i32 noundef %32) #11
  %33 = icmp slt i32 %3, %32
  %34 = icmp ult i16 %31, 8
  %or.cond = or i1 %34, %33
  br i1 %or.cond, label %.backedge, label %37

.backedge:                                        ; preds = %59, %46, %27
  call void @llvm.lifetime.start.p0(i64 6960, ptr nonnull %6) #11
  %35 = call i32 @ff_rtsp_read_reply(ptr noundef %0, ptr noundef nonnull %6, ptr noundef null, i32 noundef 1, ptr noundef null) #11
  %36 = icmp slt i32 %35, 0
  br i1 %36, label %.thread, label %.lr.ph.backedge

37:                                               ; preds = %27
  %38 = load ptr, ptr %12, align 8, !tbaa !24
  %39 = call i32 @ffurl_read_complete(ptr noundef %38, ptr noundef nonnull %2, i32 noundef %32) #11
  %.not46 = icmp eq i32 %39, %32
  br i1 %.not46, label %40, label %.loopexit55

40:                                               ; preds = %37
  %41 = load i32, ptr %14, align 8, !tbaa !50
  %42 = icmp eq i32 %41, 1
  br i1 %42, label %43, label %46

43:                                               ; preds = %40
  %44 = call i32 @ff_rdt_parse_header(ptr noundef nonnull %2, i32 noundef %32, ptr noundef nonnull %5, ptr noundef null, ptr noundef null, ptr noundef null, ptr noundef null) #11
  %45 = icmp slt i32 %44, 0
  br i1 %45, label %.loopexit55, label %46

46:                                               ; preds = %43, %40
  %47 = load i32, ptr %15, align 8, !tbaa !51
  %48 = icmp sgt i32 %47, 0
  br i1 %48, label %.lr.ph62, label %.backedge

.lr.ph62:                                         ; preds = %46
  %49 = load ptr, ptr %16, align 8, !tbaa !52
  %50 = load i32, ptr %5, align 4, !tbaa !37
  %wide.trip.count = zext nneg i32 %47 to i64
  br label %51

51:                                               ; preds = %.lr.ph62, %59
  %indvars.iv = phi i64 [ 0, %.lr.ph62 ], [ %indvars.iv.next, %59 ]
  %52 = getelementptr inbounds nuw ptr, ptr %49, i64 %indvars.iv
  %53 = load ptr, ptr %52, align 8, !tbaa !53
  %54 = getelementptr inbounds nuw i8, ptr %53, i64 20
  %55 = load i32, ptr %54, align 4, !tbaa !55
  %.not47 = icmp slt i32 %50, %55
  br i1 %.not47, label %59, label %56

56:                                               ; preds = %51
  %57 = getelementptr inbounds nuw i8, ptr %53, i64 24
  %58 = load i32, ptr %57, align 8, !tbaa !62
  %.not48 = icmp sgt i32 %50, %58
  br i1 %.not48, label %59, label %60

59:                                               ; preds = %51, %56
  %indvars.iv.next = add nuw nsw i64 %indvars.iv, 1
  %exitcond.not = icmp eq i64 %indvars.iv.next, %wide.trip.count
  br i1 %exitcond.not, label %.backedge, label %51, !llvm.loop !63

60:                                               ; preds = %56
  store ptr %53, ptr %1, align 8, !tbaa !53
  br label %.loopexit55

.loopexit55:                                      ; preds = %43, %37, %24, %.thread, %60
  %.3 = phi i32 [ %32, %60 ], [ %.2.ph, %.thread ], [ %44, %43 ], [ -5, %37 ], [ -5, %24 ]
  call void @llvm.lifetime.end.p0(i64 4, ptr nonnull %5) #11
  ret i32 %.3
}